; Function Attrs: mustprogress uwtable
define dso_local noundef zeroext i1 @_ZNK3net10QuicConfig29HasClientSentConnectionOptionEjNS_11PerspectiveE(ptr nocapture noundef nonnull readonly align 8 dereferenceable(600) %this, i32 noundef %tag, i32 noundef %perspective) local_unnamed_addr #0 align 2 personality ptr @__gxx_personality_v0 {
entry:
  %ref.tmp = alloca %"class.std::vector", align 8
  %ref.tmp9 = alloca %"class.std::vector", align 8
  %cmp = icmp eq i32 %perspective, 0
  br i1 %cmp, label %if.then, label %if.else

if.then:                                          ; preds = %entry
  %has_receive_values_.i.i = getelementptr inbounds i8, ptr %this, i64 112
  %0 = load i8, ptr %has_receive_values_.i.i, align 8
  %1 = and i8 %0, 1
  %tobool.i.i.not = icmp eq i8 %1, 0
  br i1 %tobool.i.i.not, label %if.end23, label %land.rhs

land.rhs:                                         ; preds = %if.then
  %connection_options_.i = getelementptr inbounds i8, ptr %this, i64 40
  call void @_ZNK3net18QuicFixedTagVector17GetReceivedValuesEv(ptr nonnull sret(%"class.std::vector") align 8 %ref.tmp, ptr noundef nonnull align 8 dereferenceable(73) %connection_options_.i)
  %call2 = invoke noundef zeroext i1 @_ZN3net15ContainsQuicTagERKSt6vectorIjSaIjEEj(ptr noundef nonnull align 8 dereferenceable(24) %ref.tmp, i32 noundef %tag)
          to label %cleanup.action unwind label %lpad

cleanup.action:                                   ; preds = %land.rhs
  %2 = load ptr, ptr %ref.tmp, align 8
  %tobool.not.i.i.i = icmp eq ptr %2, null
  br i1 %tobool.not.i.i.i, label %cleanup.done, label %if.then.i.i.i

if.then.i.i.i:                                    ; preds = %cleanup.action
  call void @_ZdlPv(ptr noundef nonnull %2) #19
  br i1 %call2, label %return, label %if.end23

cleanup.done:                                     ; preds = %cleanup.action
  br i1 %call2, label %return, label %if.end23

lpad:                                             ; preds = %land.rhs
  %3 = landingpad { ptr, i32 }
          cleanup
  %4 = load ptr, ptr %ref.tmp, align 8
  %tobool.not.i.i.i3 = icmp eq ptr %4, null
  br i1 %tobool.not.i.i.i3, label %eh.resume, label %eh.resume.sink.split

if.else:                                          ; preds = %entry
  %has_send_values_.i.i = getelementptr inbounds i8, ptr %this, i64 80
  %5 = load i8, ptr %has_send_values_.i.i, align 8
  %6 = and i8 %5, 1
  %tobool.i.i6.not = icmp eq i8 %6, 0
  br i1 %tobool.i.i6.not, label %if.end23, label %land.rhs8

land.rhs8:                                        ; preds = %if.else
  %connection_options_.i7 = getelementptr inbounds i8, ptr %this, i64 40
  call void @_ZNK3net18QuicFixedTagVector13GetSendValuesEv(ptr nonnull sret(%"class.std::vector") align 8 %ref.tmp9, ptr noundef nonnull align 8 dereferenceable(73) %connection_options_.i7)
  %call13 = invoke noundef zeroext i1 @_ZN3net15ContainsQuicTagERKSt6vectorIjSaIjEEj(ptr noundef nonnull align 8 dereferenceable(24) %ref.tmp9, i32 noundef %tag)
          to label %cleanup.action16 unwind label %lpad11

cleanup.action16:                                 ; preds = %land.rhs8
  %7 = load ptr, ptr %ref.tmp9, align 8
  %tobool.not.i.i.i8 = icmp eq ptr %7, null
  br i1 %tobool.not.i.i.i8, label %cleanup.done17, label %if.then.i.i.i9

if.then.i.i.i9:                                   ; preds = %cleanup.action16
  call void @_ZdlPv(ptr noundef nonnull %7) #19
  br i1 %call13, label %return, label %if.end23

cleanup.done17:                                   ; preds = %cleanup.action16
  br i1 %call13, label %return, label %if.end23

lpad11:                                           ; preds = %land.rhs8
  %8 = landingpad { ptr, i32 }
          cleanup
  %9 = load ptr, ptr %ref.tmp9, align 8
  %tobool.not.i.i.i11 = icmp eq ptr %9, null
  br i1 %tobool.not.i.i.i11, label %eh.resume, label %eh.resume.sink.split

if.end23:                                         ; preds = %if.else, %if.then, %if.then.i.i.i9, %if.then.i.i.i, %cleanup.done17, %cleanup.done
  br label %return

return:                                           ; preds = %if.then.i.i.i9, %if.then.i.i.i, %cleanup.done17, %cleanup.done, %if.end23
  %retval.0 = phi i1 [ false, %if.end23 ], [ true, %cleanup.done ], [ true, %cleanup.done17 ], [ true, %if.then.i.i.i ], [ true, %if.then.i.i.i9 ]
  ret i1 %retval.0

eh.resume.sink.split:                             ; preds = %lpad11, %lpad
  %.sink = phi ptr [ %4, %lpad ], [ %9, %lpad11 ]
  %.pn.ph = phi { ptr, i32 } [ %3, %lpad ], [ %8, %lpad11 ]
  call void @_ZdlPv(ptr noundef nonnull %.sink) #19
  br label %eh.resume

eh.resume:                                        ; preds = %eh.resume.sink.split, %lpad11, %lpad
  %.pn = phi { ptr, i32 } [ %3, %lpad ], [ %8, %lpad11 ], [ %.pn.ph, %eh.resume.sink.split ]
  resume { ptr, i32 } %.pn
}